target datalayout = "e-m:e-p270:32:32-p271:32:32-p272:64:64-i64:64-i128:128-f80:128-n8:16:32:64-S128"
target triple = "x86_64-pc-linux-gnu"

%struct.SDL_AtomicInt = type { i32 }
%struct.ALSA_Device = type { ptr, ptr, i8, ptr }

@ALSA_hotplug_shutdown = internal global %struct.SDL_AtomicInt zeroinitializer, align 4
@ALSA_hotplug_thread = internal global ptr null, align 8
@hotplug_devices = internal global ptr null, align 8

; Function Attrs: nounwind uwtable
define internal void @ALSA_DeinitializeStart() #0 {
  %1 = alloca ptr, align 8
  %2 = alloca ptr, align 8
  call void @llvm.lifetime.start.p0(i64 8, ptr %1) #7
  call void @llvm.lifetime.start.p0(i64 8, ptr %2) #7
  %3 = load ptr, ptr @ALSA_hotplug_thread, align 8
  %4 = icmp ne ptr %3, null
  br i1 %4, label %5, label %8

5:                                                ; preds = %0
  %6 = call i32 @SDL_SetAtomicInt_REAL(ptr noundef @ALSA_hotplug_shutdown, i32 noundef 1)
  %7 = load ptr, ptr @ALSA_hotplug_thread, align 8
  call void @SDL_WaitThread_REAL(ptr noundef %7, ptr noundef null)
  store ptr null, ptr @ALSA_hotplug_thread, align 8
  br label %8

8:                                                ; preds = %5, %0
  %9 = load ptr, ptr @hotplug_devices, align 8
  store ptr %9, ptr %1, align 8
  br label %10

10:                                               ; preds = %21, %8
  %11 = load ptr, ptr %1, align 8
  %12 = icmp ne ptr %11, null
  br i1 %12, label %13, label %23

13:                                               ; preds = %10
  %14 = load ptr, ptr %1, align 8
  %15 = getelementptr inbounds nuw %struct.ALSA_Device, ptr %14, i32 0, i32 3
  %16 = load ptr, ptr %15, align 8
  store ptr %16, ptr %2, align 8
  %17 = load ptr, ptr %1, align 8
  %18 = getelementptr inbounds nuw %struct.ALSA_Device, ptr %17, i32 0, i32 1
  %19 = load ptr, ptr %18, align 8
  call void @SDL_free_REAL(ptr noundef %19)
  %20 = load ptr, ptr %1, align 8
  call void @SDL_free_REAL(ptr noundef %20)
  br label %21

21:                                               ; preds = %13
  %22 = load ptr, ptr %2, align 8
  store ptr %22, ptr %1, align 8
  br label %10, !llvm.loop !8

23:                                               ; preds = %10
  store ptr null, ptr @hotplug_devices, align 8
  call void @llvm.lifetime.end.p0(i64 8, ptr %2) #7
  call void @llvm.lifetime.end.p0(i64 8, ptr %1) #7
  ret void
}