; Function Attrs: nounwind uwtable
define internal void @ALSA_DeinitializeStart() #0 {
  %1 = load ptr, ptr @ALSA_hotplug_thread, align 8
  %.not = icmp eq ptr %1, null
  br i1 %.not, label %5, label %2

2:                                                ; preds = %0
  %3 = tail call i32 @SDL_SetAtomicInt_REAL(ptr noundef nonnull @ALSA_hotplug_shutdown, i32 noundef 1) #8
  %4 = load ptr, ptr @ALSA_hotplug_thread, align 8
  tail call void @SDL_WaitThread_REAL(ptr noundef %4, ptr noundef null) #8
  store ptr null, ptr @ALSA_hotplug_thread, align 8
  br label %5

5:                                                ; preds = %2, %0
  %6 = load ptr, ptr @hotplug_devices, align 8
  %.not56 = icmp eq ptr %6, null
  br i1 %.not56, label %._crit_edge, label %.lr.ph

.lr.ph:                                           ; preds = %5, %.lr.ph
  %.07 = phi ptr [ %8, %.lr.ph ], [ %6, %5 ]
  %7 = getelementptr inbounds nuw i8, ptr %.07, i64 24
  %8 = load ptr, ptr %7, align 8
  %9 = getelementptr inbounds nuw i8, ptr %.07, i64 8
  %10 = load ptr, ptr %9, align 8
  tail call void @SDL_free_REAL(ptr noundef %10) #8
  tail call void @SDL_free_REAL(ptr noundef nonnull %.07) #8
  %.not5 = icmp eq ptr %8, null
  br i1 %.not5, label %._crit_edge, label %.lr.ph, !llvm.loop !10

._crit_edge:                                      ; preds = %.lr.ph, %5
  store ptr null, ptr @hotplug_devices, align 8
  ret void
}